target datalayout = "e-m:e-p270:32:32-p271:32:32-p272:64:64-i64:64-i128:128-f80:128-n8:16:32:64-S128"
target triple = "x86_64-pc-linux-gnu"

; Function Attrs: alwaysinline nounwind willreturn memory(none) uwtable
define internal zeroext i8 @av_clip_uint8_c(i32 noundef %0) #5 {
  %2 = alloca i8, align 1
  %3 = alloca i32, align 4
  store i32 %0, ptr %3, align 4, !tbaa !38
  %4 = load i32, ptr %3, align 4, !tbaa !38
  %5 = and i32 %4, -256
  %6 = icmp ne i32 %5, 0
  br i1 %6, label %7, label %12

7:                                                ; preds = %1
  %8 = load i32, ptr %3, align 4, !tbaa !38
  %9 = xor i32 %8, -1
  %10 = ashr i32 %9, 31
  %11 = trunc i32 %10 to i8
  store i8 %11, ptr %2, align 1
  br label %15

12:                                               ; preds = %1
  %13 = load i32, ptr %3, align 4, !tbaa !38
  %14 = trunc i32 %13 to i8
  store i8 %14, ptr %2, align 1
  br label %15

15:                                               ; preds = %12, %7
  %16 = load i8, ptr %2, align 1
  ret i8 %16
}

; Function Attrs: nounwind uwtable
define internal void @vc1_inv_trans_4x4_dc_c(ptr noundef %0, i64 noundef %1, ptr noundef %2) #1 {
  %4 = alloca ptr, align 8
  %5 = alloca i64, align 8
  %6 = alloca ptr, align 8
  %7 = alloca i32, align 4
  %8 = alloca i32, align 4
  store ptr %0, ptr %4, align 8, !tbaa !45
  store i64 %1, ptr %5, align 8, !tbaa !47
  store ptr %2, ptr %6, align 8, !tbaa !36
  call void @llvm.lifetime.start.p0(i64 4, ptr %7) #7
  call void @llvm.lifetime.start.p0(i64 4, ptr %8) #7
  %9 = load ptr, ptr %6, align 8, !tbaa !36
  %10 = getelementptr inbounds i16, ptr %9, i64 0
  %11 = load i16, ptr %10, align 2, !tbaa !40
  %12 = sext i16 %11 to i32
  store i32 %12, ptr %8, align 4, !tbaa !38
  %13 = load i32, ptr %8, align 4, !tbaa !38
  %14 = mul nsw i32 17, %13
  %15 = add nsw i32 %14, 4
  %16 = ashr i32 %15, 3
  store i32 %16, ptr %8, align 4, !tbaa !38
  %17 = load i32, ptr %8, align 4, !tbaa !38
  %18 = mul nsw i32 17, %17
  %19 = add nsw i32 %18, 64
  %20 = ashr i32 %19, 7
  store i32 %20, ptr %8, align 4, !tbaa !38
  store i32 0, ptr %7, align 4, !tbaa !38
  br label %21

21:                                               ; preds = %64, %3
  %22 = load i32, ptr %7, align 4, !tbaa !38
  %23 = icmp slt i32 %22, 4
  br i1 %23, label %24, label %67

24:                                               ; preds = %21
  %25 = load ptr, ptr %4, align 8, !tbaa !45
  %26 = getelementptr inbounds i8, ptr %25, i64 0
  %27 = load i8, ptr %26, align 1, !tbaa !50
  %28 = zext i8 %27 to i32
  %29 = load i32, ptr %8, align 4, !tbaa !38
  %30 = add nsw i32 %28, %29
  %31 = call zeroext i8 @av_clip_uint8_c(i32 noundef %30) #8
  %32 = load ptr, ptr %4, align 8, !tbaa !45
  %33 = getelementptr inbounds i8, ptr %32, i64 0
  store i8 %31, ptr %33, align 1, !tbaa !50
  %34 = load ptr, ptr %4, align 8, !tbaa !45
  %35 = getelementptr inbounds i8, ptr %34, i64 1
  %36 = load i8, ptr %35, align 1, !tbaa !50
  %37 = zext i8 %36 to i32
  %38 = load i32, ptr %8, align 4, !tbaa !38
  %39 = add nsw i32 %37, %38
  %40 = call zeroext i8 @av_clip_uint8_c(i32 noundef %39) #8
  %41 = load ptr, ptr %4, align 8, !tbaa !45
  %42 = getelementptr inbounds i8, ptr %41, i64 1
  store i8 %40, ptr %42, align 1, !tbaa !50
  %43 = load ptr, ptr %4, align 8, !tbaa !45
  %44 = getelementptr inbounds i8, ptr %43, i64 2
  %45 = load i8, ptr %44, align 1, !tbaa !50
  %46 = zext i8 %45 to i32
  %47 = load i32, ptr %8, align 4, !tbaa !38
  %48 = add nsw i32 %46, %47
  %49 = call zeroext i8 @av_clip_uint8_c(i32 noundef %48) #8
  %50 = load ptr, ptr %4, align 8, !tbaa !45
  %51 = getelementptr inbounds i8, ptr %50, i64 2
  store i8 %49, ptr %51, align 1, !tbaa !50
  %52 = load ptr, ptr %4, align 8, !tbaa !45
  %53 = getelementptr inbounds i8, ptr %52, i64 3
  %54 = load i8, ptr %53, align 1, !tbaa !50
  %55 = zext i8 %54 to i32
  %56 = load i32, ptr %8, align 4, !tbaa !38
  %57 = add nsw i32 %55, %56
  %58 = call zeroext i8 @av_clip_uint8_c(i32 noundef %57) #8
  %59 = load ptr, ptr %4, align 8, !tbaa !45
  %60 = getelementptr inbounds i8, ptr %59, i64 3
  store i8 %58, ptr %60, align 1, !tbaa !50
  %61 = load i64, ptr %5, align 8, !tbaa !47
  %62 = load ptr, ptr %4, align 8, !tbaa !45
  %63 = getelementptr inbounds i8, ptr %62, i64 %61
  store ptr %63, ptr %4, align 8, !tbaa !45
  br label %64

64:                                               ; preds = %24
  %65 = load i32, ptr %7, align 4, !tbaa !38
  %66 = add nsw i32 %65, 1
  store i32 %66, ptr %7, align 4, !tbaa !38
  br label %21, !llvm.loop !59

67:                                               ; preds = %21
  call void @llvm.lifetime.end.p0(i64 4, ptr %8) #7
  call void @llvm.lifetime.end.p0(i64 4, ptr %7) #7
  ret void
}